; Function Attrs: mustprogress nofree norecurse nosync nounwind willreturn memory(argmem: write) uwtable
define dso_local void @_ZN3net19QuicNegotiableValueC2EjNS_18QuicConfigPresenceE(ptr nocapture noundef nonnull writeonly align 8 dereferenceable(17) %this, i32 noundef %tag, i32 noundef %presence) unnamed_addr #3 align 2 {
entry:
  %tag_.i = getelementptr inbounds i8, ptr %this, i64 8
  store i32 %tag, ptr %tag_.i, align 8
  %presence_.i = getelementptr inbounds i8, ptr %this, i64 12
  store i32 %presence, ptr %presence_.i, align 4
  store ptr getelementptr inbounds ({ [6 x ptr] }, ptr @_ZTVN3net19QuicNegotiableValueE, i64 0, i32 0, i64 2), ptr %this, align 8
  %negotiated_ = getelementptr inbounds i8, ptr %this, i64 16
  store i8 0, ptr %negotiated_, align 8
  ret void
}